target datalayout = "e-m:e-p270:32:32-p271:32:32-p272:64:64-i64:64-i128:128-f80:128-n8:16:32:64-S128"
target triple = "x86_64-pc-linux-gnu"

%struct.object_id = type { [32 x i8], i32 }
%struct.commit = type { %struct.object, i64, ptr, ptr, i32 }
%struct.object = type { i32, %struct.object_id }

@complete = internal global ptr null, align 8

; Function Attrs: nounwind uwtable
define internal i32 @mark_complete(ptr noundef %0) #0 {
  %2 = alloca ptr, align 8
  %3 = alloca ptr, align 8
  store ptr %0, ptr %2, align 8, !tbaa !108
  call void @llvm.lifetime.start.p0(i64 8, ptr %3) #11
  %4 = load ptr, ptr %2, align 8, !tbaa !108
  %5 = call ptr @deref_without_lazy_fetch(ptr noundef %4, i32 noundef 1)
  store ptr %5, ptr %3, align 8, !tbaa !120
  %6 = load ptr, ptr %3, align 8, !tbaa !120
  %7 = icmp ne ptr %6, null
  br i1 %7, label %8, label %28

8:                                                ; preds = %1
  %9 = load ptr, ptr %3, align 8, !tbaa !120
  %10 = getelementptr inbounds nuw %struct.commit, ptr %9, i32 0, i32 0
  %11 = load i32, ptr %10, align 8
  %12 = lshr i32 %11, 4
  %13 = and i32 %12, 1
  %14 = icmp ne i32 %13, 0
  br i1 %14, label %28, label %15

15:                                               ; preds = %8
  %16 = load ptr, ptr %3, align 8, !tbaa !120
  %17 = getelementptr inbounds nuw %struct.commit, ptr %16, i32 0, i32 0
  %18 = load i32, ptr %17, align 8
  %19 = lshr i32 %18, 4
  %20 = or i32 %19, 1
  %21 = load i32, ptr %17, align 8
  %22 = and i32 %20, 268435455
  %23 = shl i32 %22, 4
  %24 = and i32 %21, 15
  %25 = or i32 %24, %23
  store i32 %25, ptr %17, align 8
  %26 = load ptr, ptr %3, align 8, !tbaa !120
  %27 = call ptr @commit_list_insert(ptr noundef %26, ptr noundef @complete)
  br label %28

28:                                               ; preds = %15, %8, %1
  call void @llvm.lifetime.end.p0(i64 8, ptr %3) #11
  ret i32 0
}

; Function Attrs: nounwind uwtable
define internal i32 @mark_complete_oid(ptr noundef %0, ptr noundef %1, ptr noundef %2, i32 noundef %3, ptr noundef %4) #0 {
  %6 = alloca ptr, align 8
  %7 = alloca ptr, align 8
  %8 = alloca ptr, align 8
  %9 = alloca i32, align 4
  %10 = alloca ptr, align 8
  store ptr %0, ptr %6, align 8, !tbaa !4
  store ptr %1, ptr %7, align 8, !tbaa !4
  store ptr %2, ptr %8, align 8, !tbaa !108
  store i32 %3, ptr %9, align 4, !tbaa !19
  store ptr %4, ptr %10, align 8, !tbaa !106
  %11 = load ptr, ptr %8, align 8, !tbaa !108
  %12 = call i32 @mark_complete(ptr noundef %11)
  ret i32 %12
}