; Function Attrs: nounwind uwtable
define internal noundef i32 @mark_complete_oid(ptr readnone captures(none) %0, ptr readnone captures(none) %1, ptr noundef %2, i32 %3, ptr readnone captures(none) %4) #0 {
  %6 = tail call fastcc ptr @deref_without_lazy_fetch(ptr noundef %2, i32 noundef 1)
  %.not.i = icmp eq ptr %6, null
  br i1 %.not.i, label %mark_complete.exit, label %7

7:                                                ; preds = %5
  %8 = load i32, ptr %6, align 8
  %9 = and i32 %8, 16
  %.not5.i = icmp eq i32 %9, 0
  br i1 %.not5.i, label %10, label %mark_complete.exit

10:                                               ; preds = %7
  %11 = or disjoint i32 %8, 16
  store i32 %11, ptr %6, align 8
  %12 = tail call ptr @commit_list_insert(ptr noundef nonnull %6, ptr noundef nonnull @complete) #20
  br label %mark_complete.exit

mark_complete.exit:                               ; preds = %5, %7, %10
  ret i32 0
}